#include <math.h>
#include <stdio.h>
#include <stdlib.h>
#include <string.h>

void main()
{
int a[100][16],i,j,k,l,m,s[100];
for(i=0;i<100;i++)
   {
     for(j=0;j<16;j++)    
    {scanf("%d",&a[i][j]); 
    if(a[i][j]==0||a[i][j]==-1) break;}       
    if(a[i][j]==-1)  break;
    }
for(k=0;k<i;k++)
    {        for(l=0;l<16;l++)  
    { for(m=0;m<16;m++)   if((a[k][m]!=0)&&(a[k][l]/a[k][m]==2)&&(a[k][l]%a[k][m]==0))  s[k]++;}
    }
for(k=0;k<i;k++)
  printf("%d\n",s[k]);
}

